target datalayout = "e-m:e-p270:32:32-p271:32:32-p272:64:64-i64:64-i128:128-f80:128-n8:16:32:64-S128"
target triple = "x86_64-pc-linux-gnu"

%struct._generic_SUNLinearSolver = type { ptr, ptr, ptr }
%struct._generic_SUNLinearSolver_Ops = type { ptr, ptr, ptr, ptr, ptr, ptr, ptr, ptr, ptr, ptr, ptr, ptr, ptr, ptr, ptr }
%struct.KINMemRec = type { ptr, double, ptr, ptr, double, double, i32, i64, i64, i64, i64, i32, i32, i32, i32, i32, i32, i32, i32, double, double, double, double, double, double, double, double, double, i32, double, i64, i64, i64, i64, i64, i64, i64, ptr, ptr, ptr, ptr, ptr, ptr, ptr, ptr, ptr, ptr, ptr, i32, i32, double, ptr, ptr, ptr, ptr, ptr, double, ptr, ptr, ptr, ptr, i64, i64, i32, ptr, ptr, i32, ptr, ptr, i64, i64, i64, i64, ptr, ptr, ptr, ptr, i32, ptr, double, double, double, double, double, i32, double, double, double, i32 }
%struct.KINLsMemRec = type { i32, i32, i32, ptr, ptr, ptr, ptr, double, i64, i64, i64, i64, i64, i64, i64, i32, i32, ptr, ptr, ptr, ptr, i32, ptr, ptr, ptr }

@.str = private unnamed_addr constant [118 x i8] c"generated/home/dtcxzyw/WorkSpace/Projects/compilers/llvm-opt-benchmark/bench/sundials/sundials/src/kinsol/kinsol_ls.c\00", align 1
@.str.1 = private unnamed_addr constant [23 x i8] c"KINSOL memory is NULL.\00", align 1
@.str.11 = private unnamed_addr constant [44 x i8] c"Error in calling SUNLinSolSetPreconditioner\00", align 1
@__func__.KINSetPreconditioner = private unnamed_addr constant [21 x i8] c"KINSetPreconditioner\00", align 1
@.str.13 = private unnamed_addr constant [70 x i8] c"SUNLinearSolver object does not support user-supplied preconditioning\00", align 1
@.str.26 = private unnamed_addr constant [30 x i8] c"Linear solver memory is NULL.\00", align 1

; Function Attrs: nounwind uwtable
define i32 @kinLs_AccessLMem(ptr noundef %0, ptr noundef %1, ptr noundef %2, ptr noundef %3) #0 {
  %5 = alloca i32, align 4
  %6 = alloca ptr, align 8
  %7 = alloca ptr, align 8
  %8 = alloca ptr, align 8
  %9 = alloca ptr, align 8
  store ptr %0, ptr %6, align 8, !tbaa !3
  store ptr %1, ptr %7, align 8, !tbaa !105
  store ptr %2, ptr %8, align 8, !tbaa !107
  store ptr %3, ptr %9, align 8, !tbaa !109
  %10 = load ptr, ptr %6, align 8, !tbaa !3
  %11 = icmp eq ptr %10, null
  br i1 %11, label %12, label %14

12:                                               ; preds = %4
  %13 = load ptr, ptr %7, align 8, !tbaa !105
  call void (ptr, i32, i32, ptr, ptr, ptr, ...) @KINProcessError(ptr noundef null, i32 noundef -1, i32 noundef 1399, ptr noundef %13, ptr noundef @.str, ptr noundef @.str.1)
  store i32 -1, ptr %5, align 4
  br label %32

14:                                               ; preds = %4
  %15 = load ptr, ptr %6, align 8, !tbaa !3
  %16 = load ptr, ptr %8, align 8, !tbaa !107
  store ptr %15, ptr %16, align 8, !tbaa !11
  %17 = load ptr, ptr %8, align 8, !tbaa !107
  %18 = load ptr, ptr %17, align 8, !tbaa !11
  %19 = getelementptr inbounds nuw %struct.KINMemRec, ptr %18, i32 0, i32 78
  %20 = load ptr, ptr %19, align 8, !tbaa !66
  %21 = icmp eq ptr %20, null
  br i1 %21, label %22, label %26

22:                                               ; preds = %14
  %23 = load ptr, ptr %8, align 8, !tbaa !107
  %24 = load ptr, ptr %23, align 8, !tbaa !11
  %25 = load ptr, ptr %7, align 8, !tbaa !105
  call void (ptr, i32, i32, ptr, ptr, ptr, ...) @KINProcessError(ptr noundef %24, i32 noundef -2, i32 noundef 1406, ptr noundef %25, ptr noundef @.str, ptr noundef @.str.26)
  store i32 -2, ptr %5, align 4
  br label %32

26:                                               ; preds = %14
  %27 = load ptr, ptr %8, align 8, !tbaa !107
  %28 = load ptr, ptr %27, align 8, !tbaa !11
  %29 = getelementptr inbounds nuw %struct.KINMemRec, ptr %28, i32 0, i32 78
  %30 = load ptr, ptr %29, align 8, !tbaa !66
  %31 = load ptr, ptr %9, align 8, !tbaa !109
  store ptr %30, ptr %31, align 8, !tbaa !45
  store i32 0, ptr %5, align 4
  br label %32

32:                                               ; preds = %26, %22, %12
  %33 = load i32, ptr %5, align 4
  ret i32 %33
}

; Function Attrs: nounwind uwtable
define i32 @KINSetPreconditioner(ptr noundef %0, ptr noundef %1, ptr noundef %2) #0 {
  %4 = alloca i32, align 4
  %5 = alloca ptr, align 8
  %6 = alloca ptr, align 8
  %7 = alloca ptr, align 8
  %8 = alloca ptr, align 8
  %9 = alloca ptr, align 8
  %10 = alloca ptr, align 8
  %11 = alloca ptr, align 8
  %12 = alloca i32, align 4
  %13 = alloca i32, align 4
  store ptr %0, ptr %5, align 8, !tbaa !3
  store ptr %1, ptr %6, align 8, !tbaa !3
  store ptr %2, ptr %7, align 8, !tbaa !3
  call void @llvm.lifetime.start.p0(i64 8, ptr %8) #7
  call void @llvm.lifetime.start.p0(i64 8, ptr %9) #7
  call void @llvm.lifetime.start.p0(i64 8, ptr %10) #7
  call void @llvm.lifetime.start.p0(i64 8, ptr %11) #7
  call void @llvm.lifetime.start.p0(i64 4, ptr %12) #7
  %14 = load ptr, ptr %5, align 8, !tbaa !3
  %15 = call i32 @kinLs_AccessLMem(ptr noundef %14, ptr noundef @__func__.KINSetPreconditioner, ptr noundef %8, ptr noundef %9)
  store i32 %15, ptr %12, align 4, !tbaa !20
  %16 = load i32, ptr %12, align 4, !tbaa !20
  %17 = icmp ne i32 %16, 0
  br i1 %17, label %18, label %20

18:                                               ; preds = %3
  %19 = load i32, ptr %12, align 4, !tbaa !20
  store i32 %19, ptr %4, align 4
  store i32 1, ptr %13, align 4
  br label %56

20:                                               ; preds = %3
  %21 = load ptr, ptr %6, align 8, !tbaa !3
  %22 = load ptr, ptr %9, align 8, !tbaa !45
  %23 = getelementptr inbounds nuw %struct.KINLsMemRec, ptr %22, i32 0, i32 17
  store ptr %21, ptr %23, align 8, !tbaa !57
  %24 = load ptr, ptr %7, align 8, !tbaa !3
  %25 = load ptr, ptr %9, align 8, !tbaa !45
  %26 = getelementptr inbounds nuw %struct.KINLsMemRec, ptr %25, i32 0, i32 18
  store ptr %24, ptr %26, align 8, !tbaa !58
  %27 = load ptr, ptr %9, align 8, !tbaa !45
  %28 = getelementptr inbounds nuw %struct.KINLsMemRec, ptr %27, i32 0, i32 5
  %29 = load ptr, ptr %28, align 8, !tbaa !47
  %30 = getelementptr inbounds nuw %struct._generic_SUNLinearSolver, ptr %29, i32 0, i32 1
  %31 = load ptr, ptr %30, align 8, !tbaa !13
  %32 = getelementptr inbounds nuw %struct._generic_SUNLinearSolver_Ops, ptr %31, i32 0, i32 3
  %33 = load ptr, ptr %32, align 8, !tbaa !63
  %34 = icmp eq ptr %33, null
  br i1 %34, label %35, label %37

35:                                               ; preds = %20
  %36 = load ptr, ptr %8, align 8, !tbaa !11
  call void (ptr, i32, i32, ptr, ptr, ptr, ...) @KINProcessError(ptr noundef %36, i32 noundef -3, i32 noundef 291, ptr noundef @__func__.KINSetPreconditioner, ptr noundef @.str, ptr noundef @.str.13)
  store i32 -3, ptr %4, align 4
  store i32 1, ptr %13, align 4
  br label %56

37:                                               ; preds = %20
  %38 = load ptr, ptr %6, align 8, !tbaa !3
  %39 = icmp eq ptr %38, null
  %40 = select i1 %39, ptr null, ptr @kinLsPSetup
  store ptr %40, ptr %10, align 8, !tbaa !3
  %41 = load ptr, ptr %7, align 8, !tbaa !3
  %42 = icmp eq ptr %41, null
  %43 = select i1 %42, ptr null, ptr @kinLsPSolve
  store ptr %43, ptr %11, align 8, !tbaa !3
  %44 = load ptr, ptr %9, align 8, !tbaa !45
  %45 = getelementptr inbounds nuw %struct.KINLsMemRec, ptr %44, i32 0, i32 5
  %46 = load ptr, ptr %45, align 8, !tbaa !47
  %47 = load ptr, ptr %8, align 8, !tbaa !11
  %48 = load ptr, ptr %10, align 8, !tbaa !3
  %49 = load ptr, ptr %11, align 8, !tbaa !3
  %50 = call i32 @SUNLinSolSetPreconditioner(ptr noundef %46, ptr noundef %47, ptr noundef %48, ptr noundef %49)
  store i32 %50, ptr %12, align 4, !tbaa !20
  %51 = load i32, ptr %12, align 4, !tbaa !20
  %52 = icmp ne i32 %51, 0
  br i1 %52, label %53, label %55

53:                                               ; preds = %37
  %54 = load ptr, ptr %8, align 8, !tbaa !11
  call void (ptr, i32, i32, ptr, ptr, ptr, ...) @KINProcessError(ptr noundef %54, i32 noundef -8, i32 noundef 304, ptr noundef @__func__.KINSetPreconditioner, ptr noundef @.str, ptr noundef @.str.11)
  store i32 -8, ptr %4, align 4
  store i32 1, ptr %13, align 4
  br label %56

55:                                               ; preds = %37
  store i32 0, ptr %4, align 4
  store i32 1, ptr %13, align 4
  br label %56

56:                                               ; preds = %55, %53, %35, %18
  call void @llvm.lifetime.end.p0(i64 4, ptr %12) #7
  call void @llvm.lifetime.end.p0(i64 8, ptr %11) #7
  call void @llvm.lifetime.end.p0(i64 8, ptr %10) #7
  call void @llvm.lifetime.end.p0(i64 8, ptr %9) #7
  call void @llvm.lifetime.end.p0(i64 8, ptr %8) #7
  %57 = load i32, ptr %4, align 4
  ret i32 %57
}