; Function Attrs: nounwind uwtable
define range(i32 -8, 1) i32 @KINSetPreconditioner(ptr noundef %0, ptr noundef %1, ptr noundef %2) local_unnamed_addr #0 {
  %4 = icmp eq ptr %0, null
  br i1 %4, label %5, label %6

5:                                                ; preds = %3
  tail call void (ptr, i32, i32, ptr, ptr, ptr, ...) @KINProcessError(ptr noundef null, i32 noundef -1, i32 noundef 1399, ptr noundef nonnull @__func__.KINSetPreconditioner, ptr noundef nonnull @.str, ptr noundef nonnull @.str.1) #13
  br label %kinLs_AccessLMem.exit.thread

6:                                                ; preds = %3
  %7 = getelementptr inbounds nuw i8, ptr %0, i64 584
  %8 = load ptr, ptr %7, align 8, !tbaa !55
  %9 = icmp eq ptr %8, null
  br i1 %9, label %10, label %kinLs_AccessLMem.exit

10:                                               ; preds = %6
  tail call void (ptr, i32, i32, ptr, ptr, ptr, ...) @KINProcessError(ptr noundef nonnull %0, i32 noundef -2, i32 noundef 1406, ptr noundef nonnull @__func__.KINSetPreconditioner, ptr noundef nonnull @.str, ptr noundef nonnull @.str.26) #13
  br label %kinLs_AccessLMem.exit.thread

kinLs_AccessLMem.exit:                            ; preds = %6
  %11 = getelementptr inbounds nuw i8, ptr %8, i64 120
  store ptr %1, ptr %11, align 8, !tbaa !67
  %12 = getelementptr inbounds nuw i8, ptr %8, i64 128
  store ptr %2, ptr %12, align 8, !tbaa !66
  %13 = getelementptr inbounds nuw i8, ptr %8, i64 32
  %14 = load ptr, ptr %13, align 8, !tbaa !37
  %15 = getelementptr inbounds nuw i8, ptr %14, i64 8
  %16 = load ptr, ptr %15, align 8, !tbaa !3
  %17 = getelementptr inbounds nuw i8, ptr %16, i64 24
  %18 = load ptr, ptr %17, align 8, !tbaa !52
  %19 = icmp eq ptr %18, null
  br i1 %19, label %20, label %21

20:                                               ; preds = %kinLs_AccessLMem.exit
  tail call void (ptr, i32, i32, ptr, ptr, ptr, ...) @KINProcessError(ptr noundef nonnull %0, i32 noundef -3, i32 noundef 291, ptr noundef nonnull @__func__.KINSetPreconditioner, ptr noundef nonnull @.str, ptr noundef nonnull @.str.13) #13
  br label %kinLs_AccessLMem.exit.thread

21:                                               ; preds = %kinLs_AccessLMem.exit
  %22 = icmp eq ptr %1, null
  %23 = select i1 %22, ptr null, ptr @kinLsPSetup
  %24 = icmp eq ptr %2, null
  %25 = select i1 %24, ptr null, ptr @kinLsPSolve
  %26 = tail call i32 @SUNLinSolSetPreconditioner(ptr noundef nonnull %14, ptr noundef nonnull %0, ptr noundef %23, ptr noundef %25) #13
  %.not11 = icmp eq i32 %26, 0
  br i1 %.not11, label %kinLs_AccessLMem.exit.thread, label %27

27:                                               ; preds = %21
  tail call void (ptr, i32, i32, ptr, ptr, ptr, ...) @KINProcessError(ptr noundef nonnull %0, i32 noundef -8, i32 noundef 304, ptr noundef nonnull @__func__.KINSetPreconditioner, ptr noundef nonnull @.str, ptr noundef nonnull @.str.11) #13
  br label %kinLs_AccessLMem.exit.thread

kinLs_AccessLMem.exit.thread:                     ; preds = %10, %5, %21, %27, %20
  %.0 = phi i32 [ -3, %20 ], [ -8, %27 ], [ 0, %21 ], [ -2, %10 ], [ -1, %5 ]
  ret i32 %.0
}